target datalayout = "e-m:e-p270:32:32-p271:32:32-p272:64:64-i64:64-i128:128-f80:128-n8:16:32:64-S128"
target triple = "x86_64-pc-linux-gnu"

; Function Attrs: nounwind uwtable
define i32 @SUNDlsMat_denseGEQRF(ptr noundef %0, i64 noundef %1, i64 noundef %2, ptr noundef %3, ptr noundef %4) #0 {
  %6 = alloca ptr, align 8
  %7 = alloca i64, align 8
  %8 = alloca i64, align 8
  %9 = alloca ptr, align 8
  %10 = alloca ptr, align 8
  %11 = alloca double, align 8
  %12 = alloca double, align 8
  %13 = alloca double, align 8
  %14 = alloca double, align 8
  %15 = alloca double, align 8
  %16 = alloca ptr, align 8
  %17 = alloca ptr, align 8
  %18 = alloca i64, align 8
  %19 = alloca i64, align 8
  %20 = alloca i64, align 8
  store ptr %0, ptr %6, align 8, !tbaa !18
  store i64 %1, ptr %7, align 8, !tbaa !19
  store i64 %2, ptr %8, align 8, !tbaa !19
  store ptr %3, ptr %9, align 8, !tbaa !20
  store ptr %4, ptr %10, align 8, !tbaa !20
  call void @llvm.lifetime.start.p0(i64 8, ptr %11) #4
  call void @llvm.lifetime.start.p0(i64 8, ptr %12) #4
  call void @llvm.lifetime.start.p0(i64 8, ptr %13) #4
  call void @llvm.lifetime.start.p0(i64 8, ptr %14) #4
  call void @llvm.lifetime.start.p0(i64 8, ptr %15) #4
  call void @llvm.lifetime.start.p0(i64 8, ptr %16) #4
  call void @llvm.lifetime.start.p0(i64 8, ptr %17) #4
  call void @llvm.lifetime.start.p0(i64 8, ptr %18) #4
  call void @llvm.lifetime.start.p0(i64 8, ptr %19) #4
  call void @llvm.lifetime.start.p0(i64 8, ptr %20) #4
  store i64 0, ptr %19, align 8, !tbaa !19
  br label %21

21:                                               ; preds = %225, %5
  %22 = load i64, ptr %19, align 8, !tbaa !19
  %23 = load i64, ptr %8, align 8, !tbaa !19
  %24 = icmp slt i64 %22, %23
  br i1 %24, label %25, label %228

25:                                               ; preds = %21
  %26 = load ptr, ptr %6, align 8, !tbaa !18
  %27 = load i64, ptr %19, align 8, !tbaa !19
  %28 = getelementptr inbounds ptr, ptr %26, i64 %27
  %29 = load ptr, ptr %28, align 8, !tbaa !20
  store ptr %29, ptr %16, align 8, !tbaa !20
  %30 = load ptr, ptr %16, align 8, !tbaa !20
  %31 = load i64, ptr %19, align 8, !tbaa !19
  %32 = getelementptr inbounds double, ptr %30, i64 %31
  %33 = load double, ptr %32, align 8, !tbaa !21
  store double %33, ptr %11, align 8, !tbaa !21
  %34 = load ptr, ptr %10, align 8, !tbaa !20
  %35 = getelementptr inbounds double, ptr %34, i64 0
  store double 1.000000e+00, ptr %35, align 8, !tbaa !21
  store double 0.000000e+00, ptr %12, align 8, !tbaa !21
  store i64 1, ptr %18, align 8, !tbaa !19
  br label %36

36:                                               ; preds = %62, %25
  %37 = load i64, ptr %18, align 8, !tbaa !19
  %38 = load i64, ptr %7, align 8, !tbaa !19
  %39 = load i64, ptr %19, align 8, !tbaa !19
  %40 = sub nsw i64 %38, %39
  %41 = icmp slt i64 %37, %40
  br i1 %41, label %42, label %65

42:                                               ; preds = %36
  %43 = load ptr, ptr %16, align 8, !tbaa !20
  %44 = load i64, ptr %18, align 8, !tbaa !19
  %45 = load i64, ptr %19, align 8, !tbaa !19
  %46 = add nsw i64 %44, %45
  %47 = getelementptr inbounds double, ptr %43, i64 %46
  %48 = load double, ptr %47, align 8, !tbaa !21
  %49 = load ptr, ptr %10, align 8, !tbaa !20
  %50 = load i64, ptr %18, align 8, !tbaa !19
  %51 = getelementptr inbounds double, ptr %49, i64 %50
  store double %48, ptr %51, align 8, !tbaa !21
  %52 = load ptr, ptr %10, align 8, !tbaa !20
  %53 = load i64, ptr %18, align 8, !tbaa !19
  %54 = getelementptr inbounds double, ptr %52, i64 %53
  %55 = load double, ptr %54, align 8, !tbaa !21
  %56 = load ptr, ptr %10, align 8, !tbaa !20
  %57 = load i64, ptr %18, align 8, !tbaa !19
  %58 = getelementptr inbounds double, ptr %56, i64 %57
  %59 = load double, ptr %58, align 8, !tbaa !21
  %60 = load double, ptr %12, align 8, !tbaa !21
  %61 = call double @llvm.fmuladd.f64(double %55, double %59, double %60)
  store double %61, ptr %12, align 8, !tbaa !21
  br label %62

62:                                               ; preds = %42
  %63 = load i64, ptr %18, align 8, !tbaa !19
  %64 = add nsw i64 %63, 1
  store i64 %64, ptr %18, align 8, !tbaa !19
  br label %36

65:                                               ; preds = %36
  %66 = load double, ptr %12, align 8, !tbaa !21
  %67 = fcmp une double %66, 0.000000e+00
  br i1 %67, label %68, label %127

68:                                               ; preds = %65
  %69 = load double, ptr %11, align 8, !tbaa !21
  %70 = load double, ptr %11, align 8, !tbaa !21
  %71 = load double, ptr %12, align 8, !tbaa !21
  %72 = call double @llvm.fmuladd.f64(double %69, double %70, double %71)
  %73 = fcmp ole double %72, 0.000000e+00
  br i1 %73, label %74, label %75

74:                                               ; preds = %68
  br label %81

75:                                               ; preds = %68
  %76 = load double, ptr %11, align 8, !tbaa !21
  %77 = load double, ptr %11, align 8, !tbaa !21
  %78 = load double, ptr %12, align 8, !tbaa !21
  %79 = call double @llvm.fmuladd.f64(double %76, double %77, double %78)
  %80 = call double @sqrt(double noundef %79) #4, !tbaa !23
  br label %81

81:                                               ; preds = %75, %74
  %82 = phi double [ 0.000000e+00, %74 ], [ %80, %75 ]
  store double %82, ptr %13, align 8, !tbaa !21
  %83 = load double, ptr %11, align 8, !tbaa !21
  %84 = fcmp ole double %83, 0.000000e+00
  br i1 %84, label %85, label %89

85:                                               ; preds = %81
  %86 = load double, ptr %11, align 8, !tbaa !21
  %87 = load double, ptr %13, align 8, !tbaa !21
  %88 = fsub double %86, %87
  br label %96

89:                                               ; preds = %81
  %90 = load double, ptr %12, align 8, !tbaa !21
  %91 = fneg double %90
  %92 = load double, ptr %11, align 8, !tbaa !21
  %93 = load double, ptr %13, align 8, !tbaa !21
  %94 = fadd double %92, %93
  %95 = fdiv double %91, %94
  br label %96

96:                                               ; preds = %89, %85
  %97 = phi double [ %88, %85 ], [ %95, %89 ]
  store double %97, ptr %14, align 8, !tbaa !21
  %98 = load double, ptr %14, align 8, !tbaa !21
  %99 = load double, ptr %14, align 8, !tbaa !21
  %100 = fmul double %98, %99
  store double %100, ptr %15, align 8, !tbaa !21
  %101 = load double, ptr %15, align 8, !tbaa !21
  %102 = fmul double 2.000000e+00, %101
  %103 = load double, ptr %12, align 8, !tbaa !21
  %104 = load double, ptr %15, align 8, !tbaa !21
  %105 = fadd double %103, %104
  %106 = fdiv double %102, %105
  %107 = load ptr, ptr %9, align 8, !tbaa !20
  %108 = load i64, ptr %19, align 8, !tbaa !19
  %109 = getelementptr inbounds double, ptr %107, i64 %108
  store double %106, ptr %109, align 8, !tbaa !21
  store i64 1, ptr %18, align 8, !tbaa !19
  br label %110

110:                                              ; preds = %123, %96
  %111 = load i64, ptr %18, align 8, !tbaa !19
  %112 = load i64, ptr %7, align 8, !tbaa !19
  %113 = load i64, ptr %19, align 8, !tbaa !19
  %114 = sub nsw i64 %112, %113
  %115 = icmp slt i64 %111, %114
  br i1 %115, label %116, label %126

116:                                              ; preds = %110
  %117 = load double, ptr %14, align 8, !tbaa !21
  %118 = load ptr, ptr %10, align 8, !tbaa !20
  %119 = load i64, ptr %18, align 8, !tbaa !19
  %120 = getelementptr inbounds double, ptr %118, i64 %119
  %121 = load double, ptr %120, align 8, !tbaa !21
  %122 = fdiv double %121, %117
  store double %122, ptr %120, align 8, !tbaa !21
  br label %123

123:                                              ; preds = %116
  %124 = load i64, ptr %18, align 8, !tbaa !19
  %125 = add nsw i64 %124, 1
  store i64 %125, ptr %18, align 8, !tbaa !19
  br label %110

126:                                              ; preds = %110
  br label %131

127:                                              ; preds = %65
  %128 = load ptr, ptr %9, align 8, !tbaa !20
  %129 = load i64, ptr %19, align 8, !tbaa !19
  %130 = getelementptr inbounds double, ptr %128, i64 %129
  store double 0.000000e+00, ptr %130, align 8, !tbaa !21
  br label %131

131:                                              ; preds = %127, %126
  %132 = load i64, ptr %19, align 8, !tbaa !19
  store i64 %132, ptr %20, align 8, !tbaa !19
  br label %133

133:                                              ; preds = %195, %131
  %134 = load i64, ptr %20, align 8, !tbaa !19
  %135 = load i64, ptr %8, align 8, !tbaa !19
  %136 = icmp slt i64 %134, %135
  br i1 %136, label %137, label %198

137:                                              ; preds = %133
  %138 = load ptr, ptr %6, align 8, !tbaa !18
  %139 = load i64, ptr %20, align 8, !tbaa !19
  %140 = getelementptr inbounds ptr, ptr %138, i64 %139
  %141 = load ptr, ptr %140, align 8, !tbaa !20
  store ptr %141, ptr %17, align 8, !tbaa !20
  store double 0.000000e+00, ptr %12, align 8, !tbaa !21
  store i64 0, ptr %18, align 8, !tbaa !19
  br label %142

142:                                              ; preds = %161, %137
  %143 = load i64, ptr %18, align 8, !tbaa !19
  %144 = load i64, ptr %7, align 8, !tbaa !19
  %145 = load i64, ptr %19, align 8, !tbaa !19
  %146 = sub nsw i64 %144, %145
  %147 = icmp slt i64 %143, %146
  br i1 %147, label %148, label %164

148:                                              ; preds = %142
  %149 = load ptr, ptr %17, align 8, !tbaa !20
  %150 = load i64, ptr %18, align 8, !tbaa !19
  %151 = load i64, ptr %19, align 8, !tbaa !19
  %152 = add nsw i64 %150, %151
  %153 = getelementptr inbounds double, ptr %149, i64 %152
  %154 = load double, ptr %153, align 8, !tbaa !21
  %155 = load ptr, ptr %10, align 8, !tbaa !20
  %156 = load i64, ptr %18, align 8, !tbaa !19
  %157 = getelementptr inbounds double, ptr %155, i64 %156
  %158 = load double, ptr %157, align 8, !tbaa !21
  %159 = load double, ptr %12, align 8, !tbaa !21
  %160 = call double @llvm.fmuladd.f64(double %154, double %158, double %159)
  store double %160, ptr %12, align 8, !tbaa !21
  br label %161

161:                                              ; preds = %148
  %162 = load i64, ptr %18, align 8, !tbaa !19
  %163 = add nsw i64 %162, 1
  store i64 %163, ptr %18, align 8, !tbaa !19
  br label %142

164:                                              ; preds = %142
  %165 = load ptr, ptr %9, align 8, !tbaa !20
  %166 = load i64, ptr %19, align 8, !tbaa !19
  %167 = getelementptr inbounds double, ptr %165, i64 %166
  %168 = load double, ptr %167, align 8, !tbaa !21
  %169 = load double, ptr %12, align 8, !tbaa !21
  %170 = fmul double %169, %168
  store double %170, ptr %12, align 8, !tbaa !21
  store i64 0, ptr %18, align 8, !tbaa !19
  br label %171

171:                                              ; preds = %191, %164
  %172 = load i64, ptr %18, align 8, !tbaa !19
  %173 = load i64, ptr %7, align 8, !tbaa !19
  %174 = load i64, ptr %19, align 8, !tbaa !19
  %175 = sub nsw i64 %173, %174
  %176 = icmp slt i64 %172, %175
  br i1 %176, label %177, label %194

177:                                              ; preds = %171
  %178 = load double, ptr %12, align 8, !tbaa !21
  %179 = load ptr, ptr %10, align 8, !tbaa !20
  %180 = load i64, ptr %18, align 8, !tbaa !19
  %181 = getelementptr inbounds double, ptr %179, i64 %180
  %182 = load double, ptr %181, align 8, !tbaa !21
  %183 = load ptr, ptr %17, align 8, !tbaa !20
  %184 = load i64, ptr %18, align 8, !tbaa !19
  %185 = load i64, ptr %19, align 8, !tbaa !19
  %186 = add nsw i64 %184, %185
  %187 = getelementptr inbounds double, ptr %183, i64 %186
  %188 = load double, ptr %187, align 8, !tbaa !21
  %189 = fneg double %178
  %190 = call double @llvm.fmuladd.f64(double %189, double %182, double %188)
  store double %190, ptr %187, align 8, !tbaa !21
  br label %191

191:                                              ; preds = %177
  %192 = load i64, ptr %18, align 8, !tbaa !19
  %193 = add nsw i64 %192, 1
  store i64 %193, ptr %18, align 8, !tbaa !19
  br label %171

194:                                              ; preds = %171
  br label %195

195:                                              ; preds = %194
  %196 = load i64, ptr %20, align 8, !tbaa !19
  %197 = add nsw i64 %196, 1
  store i64 %197, ptr %20, align 8, !tbaa !19
  br label %133

198:                                              ; preds = %133
  %199 = load i64, ptr %19, align 8, !tbaa !19
  %200 = load i64, ptr %7, align 8, !tbaa !19
  %201 = sub nsw i64 %200, 1
  %202 = icmp slt i64 %199, %201
  br i1 %202, label %203, label %224

203:                                              ; preds = %198
  store i64 1, ptr %18, align 8, !tbaa !19
  br label %204

204:                                              ; preds = %220, %203
  %205 = load i64, ptr %18, align 8, !tbaa !19
  %206 = load i64, ptr %7, align 8, !tbaa !19
  %207 = load i64, ptr %19, align 8, !tbaa !19
  %208 = sub nsw i64 %206, %207
  %209 = icmp slt i64 %205, %208
  br i1 %209, label %210, label %223

210:                                              ; preds = %204
  %211 = load ptr, ptr %10, align 8, !tbaa !20
  %212 = load i64, ptr %18, align 8, !tbaa !19
  %213 = getelementptr inbounds double, ptr %211, i64 %212
  %214 = load double, ptr %213, align 8, !tbaa !21
  %215 = load ptr, ptr %16, align 8, !tbaa !20
  %216 = load i64, ptr %18, align 8, !tbaa !19
  %217 = load i64, ptr %19, align 8, !tbaa !19
  %218 = add nsw i64 %216, %217
  %219 = getelementptr inbounds double, ptr %215, i64 %218
  store double %214, ptr %219, align 8, !tbaa !21
  br label %220

220:                                              ; preds = %210
  %221 = load i64, ptr %18, align 8, !tbaa !19
  %222 = add nsw i64 %221, 1
  store i64 %222, ptr %18, align 8, !tbaa !19
  br label %204

223:                                              ; preds = %204
  br label %224

224:                                              ; preds = %223, %198
  br label %225

225:                                              ; preds = %224
  %226 = load i64, ptr %19, align 8, !tbaa !19
  %227 = add nsw i64 %226, 1
  store i64 %227, ptr %19, align 8, !tbaa !19
  br label %21

228:                                              ; preds = %21
  call void @llvm.lifetime.end.p0(i64 8, ptr %20) #4
  call void @llvm.lifetime.end.p0(i64 8, ptr %19) #4
  call void @llvm.lifetime.end.p0(i64 8, ptr %18) #4
  call void @llvm.lifetime.end.p0(i64 8, ptr %17) #4
  call void @llvm.lifetime.end.p0(i64 8, ptr %16) #4
  call void @llvm.lifetime.end.p0(i64 8, ptr %15) #4
  call void @llvm.lifetime.end.p0(i64 8, ptr %14) #4
  call void @llvm.lifetime.end.p0(i64 8, ptr %13) #4
  call void @llvm.lifetime.end.p0(i64 8, ptr %12) #4
  call void @llvm.lifetime.end.p0(i64 8, ptr %11) #4
  ret i32 0
}