; Function Attrs: nofree nounwind memory(readwrite, inaccessiblemem: write) uwtable
define noundef i32 @SUNDlsMat_denseGEQRF(ptr noundef readonly captures(none) %0, i64 noundef %1, i64 noundef %2, ptr noundef captures(none) %3, ptr noundef captures(none) %4) local_unnamed_addr #2 {
  %6 = icmp sgt i64 %2, 0
  br i1 %6, label %.lr.ph130, label %._crit_edge131

.lr.ph130:                                        ; preds = %5
  %7 = add nsw i64 %1, -1
  br label %8

8:                                                ; preds = %.lr.ph130, %.loopexit
  %indvars.iv = phi i64 [ %1, %.lr.ph130 ], [ %indvars.iv.next, %.loopexit ]
  %.090128 = phi i64 [ 0, %.lr.ph130 ], [ %67, %.loopexit ]
  %9 = getelementptr inbounds nuw ptr, ptr %0, i64 %.090128
  %10 = load ptr, ptr %9, align 8, !tbaa !14
  %11 = getelementptr inbounds nuw double, ptr %10, i64 %.090128
  %12 = load double, ptr %11, align 8, !tbaa !15
  store double 1.000000e+00, ptr %4, align 8, !tbaa !15
  %13 = sub nsw i64 %1, %.090128
  %14 = icmp slt i64 %13, 2
  br i1 %14, label %._crit_edge.thread, label %.lr.ph

.lr.ph:                                           ; preds = %8, %.lr.ph
  %.091101 = phi i64 [ %18, %.lr.ph ], [ 1, %8 ]
  %.092100 = phi double [ %17, %.lr.ph ], [ 0.000000e+00, %8 ]
  %gep = getelementptr inbounds nuw double, ptr %11, i64 %.091101
  %15 = load double, ptr %gep, align 8, !tbaa !15
  %16 = getelementptr inbounds nuw double, ptr %4, i64 %.091101
  store double %15, ptr %16, align 8, !tbaa !15
  %17 = tail call double @llvm.fmuladd.f64(double %15, double %15, double %.092100)
  %18 = add nuw nsw i64 %.091101, 1
  %exitcond.not = icmp eq i64 %18, %indvars.iv
  br i1 %exitcond.not, label %._crit_edge, label %.lr.ph

._crit_edge:                                      ; preds = %.lr.ph
  %19 = fcmp une double %17, 0.000000e+00
  br i1 %19, label %20, label %._crit_edge.thread

20:                                               ; preds = %._crit_edge
  %21 = tail call double @llvm.fmuladd.f64(double %12, double %12, double %17)
  %22 = fcmp ugt double %21, 0.000000e+00
  br i1 %22, label %23, label %25

23:                                               ; preds = %20
  %24 = tail call double @sqrt(double noundef %21) #6, !tbaa !18
  br label %25

25:                                               ; preds = %20, %23
  %26 = phi double [ %24, %23 ], [ 0.000000e+00, %20 ]
  %27 = fcmp ugt double %12, 0.000000e+00
  %28 = fsub double %12, %26
  %29 = fneg double %17
  %30 = fadd double %12, %26
  %31 = fdiv double %29, %30
  %32 = select i1 %27, double %31, double %28
  %33 = fmul double %32, %32
  %34 = fmul double %33, 2.000000e+00
  %35 = fadd double %17, %33
  %36 = fdiv double %34, %35
  %37 = getelementptr inbounds nuw double, ptr %3, i64 %.090128
  store double %36, ptr %37, align 8, !tbaa !15
  br label %.lr.ph105

.lr.ph105:                                        ; preds = %25, %.lr.ph105
  %.1103 = phi i64 [ %41, %.lr.ph105 ], [ 1, %25 ]
  %38 = getelementptr inbounds nuw double, ptr %4, i64 %.1103
  %39 = load double, ptr %38, align 8, !tbaa !15
  %40 = fdiv double %39, %32
  store double %40, ptr %38, align 8, !tbaa !15
  %41 = add nuw nsw i64 %.1103, 1
  %exitcond133.not = icmp eq i64 %41, %indvars.iv
  br i1 %exitcond133.not, label %.lr.ph122, label %.lr.ph105

._crit_edge.thread:                               ; preds = %8, %._crit_edge
  %42 = getelementptr inbounds nuw double, ptr %3, i64 %.090128
  store double 0.000000e+00, ptr %42, align 8, !tbaa !15
  br label %.lr.ph122

.lr.ph122:                                        ; preds = %.lr.ph105, %._crit_edge.thread
  %43 = icmp sgt i64 %13, 0
  %44 = getelementptr inbounds nuw double, ptr %3, i64 %.090128
  br label %45

45:                                               ; preds = %.lr.ph122, %._crit_edge119
  %.0120 = phi i64 [ %.090128, %.lr.ph122 ], [ %62, %._crit_edge119 ]
  %46 = getelementptr inbounds nuw ptr, ptr %0, i64 %.0120
  %47 = load ptr, ptr %46, align 8, !tbaa !14
  %invariant.gep106 = getelementptr inbounds nuw double, ptr %47, i64 %.090128
  br i1 %43, label %.lr.ph111, label %._crit_edge119

.lr.ph111:                                        ; preds = %45, %.lr.ph111
  %.2109 = phi i64 [ %52, %.lr.ph111 ], [ 0, %45 ]
  %.193108 = phi double [ %51, %.lr.ph111 ], [ 0.000000e+00, %45 ]
  %gep107 = getelementptr inbounds nuw double, ptr %invariant.gep106, i64 %.2109
  %48 = load double, ptr %gep107, align 8, !tbaa !15
  %49 = getelementptr inbounds nuw double, ptr %4, i64 %.2109
  %50 = load double, ptr %49, align 8, !tbaa !15
  %51 = tail call double @llvm.fmuladd.f64(double %48, double %50, double %.193108)
  %52 = add nuw nsw i64 %.2109, 1
  %exitcond134.not = icmp eq i64 %52, %indvars.iv
  br i1 %exitcond134.not, label %.lr.ph118, label %.lr.ph111

.lr.ph118:                                        ; preds = %.lr.ph111
  %53 = load double, ptr %44, align 8, !tbaa !15
  %54 = fneg double %53
  %55 = fmul double %51, %54
  br label %56

56:                                               ; preds = %.lr.ph118, %56
  %.3116 = phi i64 [ 0, %.lr.ph118 ], [ %61, %56 ]
  %57 = getelementptr inbounds nuw double, ptr %4, i64 %.3116
  %58 = load double, ptr %57, align 8, !tbaa !15
  %gep115 = getelementptr inbounds nuw double, ptr %invariant.gep106, i64 %.3116
  %59 = load double, ptr %gep115, align 8, !tbaa !15
  %60 = tail call double @llvm.fmuladd.f64(double %55, double %58, double %59)
  store double %60, ptr %gep115, align 8, !tbaa !15
  %61 = add nuw nsw i64 %.3116, 1
  %exitcond135.not = icmp eq i64 %61, %indvars.iv
  br i1 %exitcond135.not, label %._crit_edge119, label %56

._crit_edge119:                                   ; preds = %56, %45
  %62 = add nuw nsw i64 %.0120, 1
  %exitcond136.not = icmp eq i64 %62, %2
  br i1 %exitcond136.not, label %._crit_edge123, label %45

._crit_edge123:                                   ; preds = %._crit_edge119
  %63 = icmp sge i64 %.090128, %7
  %brmerge = or i1 %63, %14
  br i1 %brmerge, label %.loopexit, label %.lr.ph127

.lr.ph127:                                        ; preds = %._crit_edge123, %.lr.ph127
  %.4126 = phi i64 [ %66, %.lr.ph127 ], [ 1, %._crit_edge123 ]
  %64 = getelementptr inbounds nuw double, ptr %4, i64 %.4126
  %65 = load double, ptr %64, align 8, !tbaa !15
  %gep125 = getelementptr inbounds nuw double, ptr %11, i64 %.4126
  store double %65, ptr %gep125, align 8, !tbaa !15
  %66 = add nuw nsw i64 %.4126, 1
  %exitcond138.not = icmp eq i64 %66, %indvars.iv
  br i1 %exitcond138.not, label %.loopexit, label %.lr.ph127

.loopexit:                                        ; preds = %.lr.ph127, %._crit_edge123
  %67 = add nuw nsw i64 %.090128, 1
  %indvars.iv.next = add i64 %indvars.iv, -1
  %exitcond139.not = icmp eq i64 %67, %2
  br i1 %exitcond139.not, label %._crit_edge131, label %8

._crit_edge131:                                   ; preds = %.loopexit, %5
  ret i32 0
}